target datalayout = "e-m:e-p270:32:32-p271:32:32-p272:64:64-i64:64-i128:128-f80:128-n8:16:32:64-S128"
target triple = "x86_64-pc-linux-gnu"

%"struct.OpenImageIO::v3_1_0::TypeDesc" = type { i8, i8, i8, i8, i32 }
%"class.OpenImageIO::v3_1_0::basic_string_view" = type { ptr, i64 }
%"struct.OpenImageIO::v3_1_0::(anonymous namespace)::CChanNameHolder" = type <{ %"class.OpenImageIO::v3_1_0::basic_string_view", %"class.OpenImageIO::v3_1_0::basic_string_view", %"class.OpenImageIO::v3_1_0::basic_string_view", i32, i32, i32, %"struct.OpenImageIO::v3_1_0::TypeDesc", i32, i32, [4 x i8] }>

; Function Attrs: mustprogress nounwind uwtable
define linkonce_odr noundef i32 @_ZNSt11char_traitsIcE7compareEPKcS2_m(ptr noundef %0, ptr noundef %1, i64 noundef %2) #8 comdat align 2 {
  %4 = alloca i32, align 4
  %5 = alloca ptr, align 8
  %6 = alloca ptr, align 8
  %7 = alloca i64, align 8
  store ptr %0, ptr %5, align 8, !tbaa !14
  store ptr %1, ptr %6, align 8, !tbaa !14
  store i64 %2, ptr %7, align 8, !tbaa !115
  %8 = load i64, ptr %7, align 8, !tbaa !115
  %9 = icmp eq i64 %8, 0
  br i1 %9, label %10, label %11

10:                                               ; preds = %3
  store i32 0, ptr %4, align 4
  br label %16

11:                                               ; preds = %3
  %12 = load ptr, ptr %5, align 8, !tbaa !14
  %13 = load ptr, ptr %6, align 8, !tbaa !14
  %14 = load i64, ptr %7, align 8, !tbaa !115
  %15 = call i32 @memcmp(ptr noundef %12, ptr noundef %13, i64 noundef %14) #5
  store i32 %15, ptr %4, align 4
  br label %16

16:                                               ; preds = %11, %10
  %17 = load i32, ptr %4, align 4
  ret i32 %17
}

; Function Attrs: inlinehint mustprogress nounwind uwtable
define linkonce_odr noundef nonnull align 8 dereferenceable(8) ptr @_ZSt3minImERKT_S2_S2_(ptr noundef nonnull align 8 dereferenceable(8) %0, ptr noundef nonnull align 8 dereferenceable(8) %1) #0 comdat {
  %3 = alloca ptr, align 8
  %4 = alloca ptr, align 8
  %5 = alloca ptr, align 8
  store ptr %0, ptr %4, align 8, !tbaa !313
  store ptr %1, ptr %5, align 8, !tbaa !313
  %6 = load ptr, ptr %5, align 8, !tbaa !313
  %7 = load i64, ptr %6, align 8, !tbaa !115
  %8 = load ptr, ptr %4, align 8, !tbaa !313
  %9 = load i64, ptr %8, align 8, !tbaa !115
  %10 = icmp ult i64 %7, %9
  br i1 %10, label %11, label %13

11:                                               ; preds = %2
  %12 = load ptr, ptr %5, align 8, !tbaa !313
  store ptr %12, ptr %3, align 8
  br label %15

13:                                               ; preds = %2
  %14 = load ptr, ptr %4, align 8, !tbaa !313
  store ptr %14, ptr %3, align 8
  br label %15

15:                                               ; preds = %13, %11
  %16 = load ptr, ptr %3, align 8
  ret ptr %16
}

; Function Attrs: noinline noreturn nounwind uwtable
define linkonce_odr hidden void @__clang_call_terminate(ptr noundef %0) #16 comdat {
  %2 = call ptr @__cxa_begin_catch(ptr %0) #5
  call void @_ZSt9terminatev() #23
  unreachable
}

; Function Attrs: mustprogress nounwind uwtable
define linkonce_odr hidden noundef i32 @_ZNK11OpenImageIO6v3_1_017basic_string_viewIcSt11char_traitsIcEE7compareES4_(ptr noundef nonnull align 8 dereferenceable(16) %0, ptr noundef %1) #8 comdat align 2 personality ptr @__gxx_personality_v0 {
  %3 = alloca ptr, align 8
  %4 = alloca ptr, align 8
  %5 = alloca i32, align 4
  store ptr %0, ptr %3, align 8, !tbaa !110
  store ptr %1, ptr %4, align 8, !tbaa !110
  %6 = load ptr, ptr %3, align 8
  call void @llvm.lifetime.start.p0(i64 4, ptr %5) #5
  %7 = getelementptr inbounds nuw %"class.OpenImageIO::v3_1_0::basic_string_view", ptr %6, i32 0, i32 0
  %8 = load ptr, ptr %7, align 8, !tbaa !112
  %9 = getelementptr inbounds nuw %"class.OpenImageIO::v3_1_0::basic_string_view", ptr %1, i32 0, i32 0
  %10 = load ptr, ptr %9, align 8, !tbaa !112
  %11 = getelementptr inbounds nuw %"class.OpenImageIO::v3_1_0::basic_string_view", ptr %6, i32 0, i32 1
  %12 = getelementptr inbounds nuw %"class.OpenImageIO::v3_1_0::basic_string_view", ptr %1, i32 0, i32 1
  %13 = invoke noundef nonnull align 8 dereferenceable(8) ptr @_ZSt3minImERKT_S2_S2_(ptr noundef nonnull align 8 dereferenceable(8) %11, ptr noundef nonnull align 8 dereferenceable(8) %12)
          to label %14 unwind label %31

14:                                               ; preds = %2
  %15 = load i64, ptr %13, align 8, !tbaa !115
  %16 = call noundef i32 @_ZNSt11char_traitsIcE7compareEPKcS2_m(ptr noundef %8, ptr noundef %10, i64 noundef %15)
  store i32 %16, ptr %5, align 4, !tbaa !107
  %17 = load i32, ptr %5, align 4, !tbaa !107
  %18 = icmp ne i32 %17, 0
  br i1 %18, label %19, label %21

19:                                               ; preds = %14
  %20 = load i32, ptr %5, align 4, !tbaa !107
  br label %29

21:                                               ; preds = %14
  %22 = getelementptr inbounds nuw %"class.OpenImageIO::v3_1_0::basic_string_view", ptr %6, i32 0, i32 1
  %23 = load i64, ptr %22, align 8, !tbaa !114
  %24 = trunc i64 %23 to i32
  %25 = getelementptr inbounds nuw %"class.OpenImageIO::v3_1_0::basic_string_view", ptr %1, i32 0, i32 1
  %26 = load i64, ptr %25, align 8, !tbaa !114
  %27 = trunc i64 %26 to i32
  %28 = sub nsw i32 %24, %27
  br label %29

29:                                               ; preds = %21, %19
  %30 = phi i32 [ %20, %19 ], [ %28, %21 ]
  call void @llvm.lifetime.end.p0(i64 4, ptr %5) #5
  ret i32 %30

31:                                               ; preds = %2
  %32 = landingpad { ptr, i32 }
          catch ptr null
  %33 = extractvalue { ptr, i32 } %32, 0
  call void @__clang_call_terminate(ptr %33) #23
  unreachable
}

; Function Attrs: mustprogress nounwind uwtable
define linkonce_odr hidden noundef i64 @_ZNK11OpenImageIO6v3_1_017basic_string_viewIcSt11char_traitsIcEE4sizeEv(ptr noundef nonnull align 8 dereferenceable(16) %0) #8 comdat align 2 {
  %2 = alloca ptr, align 8
  store ptr %0, ptr %2, align 8, !tbaa !110
  %3 = load ptr, ptr %2, align 8
  %4 = getelementptr inbounds nuw %"class.OpenImageIO::v3_1_0::basic_string_view", ptr %3, i32 0, i32 1
  %5 = load i64, ptr %4, align 8, !tbaa !114
  ret i64 %5
}

; Function Attrs: mustprogress nounwind uwtable
define linkonce_odr hidden noundef ptr @_ZNK11OpenImageIO6v3_1_017basic_string_viewIcSt11char_traitsIcEE4dataEv(ptr noundef nonnull align 8 dereferenceable(16) %0) #8 comdat align 2 {
  %2 = alloca ptr, align 8
  store ptr %0, ptr %2, align 8, !tbaa !110
  %3 = load ptr, ptr %2, align 8
  %4 = getelementptr inbounds nuw %"class.OpenImageIO::v3_1_0::basic_string_view", ptr %3, i32 0, i32 0
  %5 = load ptr, ptr %4, align 8, !tbaa !112
  ret ptr %5
}

; Function Attrs: mustprogress nounwind uwtable
define linkonce_odr hidden noundef zeroext i1 @_ZN11OpenImageIO6v3_1_0ltENS0_17basic_string_viewIcSt11char_traitsIcEEES4_(ptr noundef %0, ptr noundef %1) #8 comdat personality ptr @__gxx_personality_v0 {
  %3 = alloca ptr, align 8
  %4 = alloca ptr, align 8
  %5 = alloca %"class.OpenImageIO::v3_1_0::basic_string_view", align 8
  store ptr %0, ptr %3, align 8, !tbaa !110
  store ptr %1, ptr %4, align 8, !tbaa !110
  invoke void @_ZN11OpenImageIO6v3_1_017basic_string_viewIcSt11char_traitsIcEEC2ERKS4_(ptr noundef nonnull align 8 dereferenceable(16) %5, ptr noundef nonnull align 8 dereferenceable(16) %1)
          to label %6 unwind label %9

6:                                                ; preds = %2
  %7 = call noundef i32 @_ZNK11OpenImageIO6v3_1_017basic_string_viewIcSt11char_traitsIcEE7compareES4_(ptr noundef nonnull align 8 dereferenceable(16) %0, ptr noundef %5) #5
  %8 = icmp slt i32 %7, 0
  ret i1 %8

9:                                                ; preds = %2
  %10 = landingpad { ptr, i32 }
          catch ptr null
  %11 = extractvalue { ptr, i32 } %10, 0
  call void @__clang_call_terminate(ptr %11) #23
  unreachable
}

; Function Attrs: mustprogress nounwind uwtable
define linkonce_odr hidden void @_ZN11OpenImageIO6v3_1_017basic_string_viewIcSt11char_traitsIcEEC2ERKS4_(ptr noundef nonnull align 8 dereferenceable(16) %0, ptr noundef nonnull align 8 dereferenceable(16) %1) unnamed_addr #8 comdat align 2 {
  %3 = alloca ptr, align 8
  %4 = alloca ptr, align 8
  store ptr %0, ptr %3, align 8, !tbaa !110
  store ptr %1, ptr %4, align 8, !tbaa !110
  %5 = load ptr, ptr %3, align 8
  %6 = getelementptr inbounds nuw %"class.OpenImageIO::v3_1_0::basic_string_view", ptr %5, i32 0, i32 0
  %7 = load ptr, ptr %4, align 8, !tbaa !110
  %8 = call noundef ptr @_ZNK11OpenImageIO6v3_1_017basic_string_viewIcSt11char_traitsIcEE4dataEv(ptr noundef nonnull align 8 dereferenceable(16) %7) #5
  store ptr %8, ptr %6, align 8, !tbaa !112
  %9 = getelementptr inbounds nuw %"class.OpenImageIO::v3_1_0::basic_string_view", ptr %5, i32 0, i32 1
  %10 = load ptr, ptr %4, align 8, !tbaa !110
  %11 = call noundef i64 @_ZNK11OpenImageIO6v3_1_017basic_string_viewIcSt11char_traitsIcEE4sizeEv(ptr noundef nonnull align 8 dereferenceable(16) %10) #5
  store i64 %11, ptr %9, align 8, !tbaa !114
  ret void
}

; Function Attrs: mustprogress uwtable
define internal noundef zeroext i1 @_ZN11OpenImageIO6v3_1_012_GLOBAL__N_115CChanNameHolder13compare_layerERKS2_S4_(ptr noundef nonnull align 8 dereferenceable(76) %0, ptr noundef nonnull align 8 dereferenceable(76) %1) #6 align 2 {
  %3 = alloca ptr, align 8
  %4 = alloca ptr, align 8
  %5 = alloca %"class.OpenImageIO::v3_1_0::basic_string_view", align 8
  %6 = alloca %"class.OpenImageIO::v3_1_0::basic_string_view", align 8
  store ptr %0, ptr %3, align 8, !tbaa !231
  store ptr %1, ptr %4, align 8, !tbaa !231
  %7 = load ptr, ptr %3, align 8, !tbaa !231
  %8 = getelementptr inbounds nuw %"struct.OpenImageIO::v3_1_0::(anonymous namespace)::CChanNameHolder", ptr %7, i32 0, i32 1
  call void @_ZN11OpenImageIO6v3_1_017basic_string_viewIcSt11char_traitsIcEEC2ERKS4_(ptr noundef nonnull align 8 dereferenceable(16) %5, ptr noundef nonnull align 8 dereferenceable(16) %8)
  %9 = load ptr, ptr %4, align 8, !tbaa !231
  %10 = getelementptr inbounds nuw %"struct.OpenImageIO::v3_1_0::(anonymous namespace)::CChanNameHolder", ptr %9, i32 0, i32 1
  call void @_ZN11OpenImageIO6v3_1_017basic_string_viewIcSt11char_traitsIcEEC2ERKS4_(ptr noundef nonnull align 8 dereferenceable(16) %6, ptr noundef nonnull align 8 dereferenceable(16) %10)
  %11 = call noundef zeroext i1 @_ZN11OpenImageIO6v3_1_0ltENS0_17basic_string_viewIcSt11char_traitsIcEEES4_(ptr noundef %5, ptr noundef %6) #5
  ret i1 %11
}